Certificate:
    Data:
        Version: 3 (0x2)
        Serial Number: 2 (0x2)
        Signature Algorithm: sha1WithRSAEncryption
        Issuer: C=BA, ST=Republika Srpska, L=Banja Luka, O=Elektrotehnicki fakultet, OU=Katedra za racunarstvo i informatiku, CN=CA sertifikat - ispit 27.01.2016./emailAddress=ca@etfbl.net
        Validity
            Not Before: May 27 21:27:54 2024 GMT
            Not After : May 25 21:27:54 2034 GMT
        Subject: C=BA, ST=Republika Srpska, O=Elektrotehnicki fakultet, OU=Katedra za racunarstvo i informatiku, CN=marko2/emailAddress=marko2@gmail.com
        Subject Public Key Info:
            Public Key Algorithm: rsaEncryption
                Public-Key: (2048 bit)
                Modulus:
                    00:b6:12:75:5b:18:8a:06:77:5a:09:97:c6:ca:50:
                    45:16:e8:1f:75:e7:88:b8:5b:66:94:e7:a9:fa:54:
                    71:72:8b:e2:23:f8:42:e5:b9:8e:ae:9f:40:36:1e:
                    79:50:df:76:b3:22:7b:53:3e:db:85:b1:45:5d:be:
                    80:ff:11:cf:51:db:30:1f:a3:a0:b0:d2:f0:b0:0a:
                    9d:7a:38:78:22:4e:96:78:dc:5c:82:3f:b7:33:4f:
                    57:83:69:85:b3:70:a2:1d:b7:13:e2:eb:aa:fd:d0:
                    b0:d1:5e:bd:6e:b6:e0:8a:35:7c:2e:f7:9f:d1:f4:
                    b0:2c:e6:be:0b:80:9e:2e:13:b0:02:6b:e9:58:32:
                    0f:7f:04:ea:88:b5:d1:12:44:bc:c7:44:43:d9:23:
                    a1:61:14:9a:39:92:6b:be:68:23:7a:3d:de:41:df:
                    2e:c0:22:ee:0f:1f:13:e6:76:c8:9b:6a:69:8e:63:
                    85:18:29:20:b3:bb:9e:01:6c:00:fc:28:2a:8d:ff:
                    c0:f1:89:61:71:3a:0c:72:4b:01:c0:5f:0e:6d:bc:
                    7f:95:2a:8a:af:bf:7a:01:da:1a:a6:03:48:3e:eb:
                    d1:18:d3:44:62:19:1f:8c:a5:7e:5e:9d:f4:09:12:
                    9e:6c:2f:93:cc:75:82:7b:3a:54:54:5a:78:3d:e6:
                    5a:cd
                Exponent: 65537 (0x10001)
        X509v3 extensions:
            X509v3 Basic Constraints: 
                CA:FALSE
            X509v3 Key Usage: 
                Digital Signature, Non Repudiation, Key Encipherment
            Netscape Comment: 
                OpenSSL Generated Certificate
            X509v3 Subject Key Identifier: 
                4E:9E:24:83:A3:DB:77:D1:1E:15:9E:11:E8:EE:2A:B7:7C:B4:1C:80
            X509v3 Authority Key Identifier: 
                2C:88:E0:1C:0D:32:3E:F5:A0:04:4C:8D:81:4A:D9:2B:A1:E8:10:63
    Signature Algorithm: sha1WithRSAEncryption
    Signature Value:
        8d:d9:a3:3a:77:8e:7e:7e:a5:6b:4b:23:a6:55:9a:d3:78:a8:
        68:1c:c7:ff:ac:87:db:03:aa:17:f1:e6:5f:42:b6:2f:b8:4f:
        49:6a:04:27:c7:21:4c:57:f1:cf:d9:ea:59:79:55:7f:58:62:
        c0:9d:c7:8a:c6:8e:f9:cb:68:ea:70:ea:e5:97:6a:c7:fb:db:
        5a:f2:b1:00:be:8c:8a:45:98:df:a7:8b:24:8f:4d:37:ef:0f:
        25:b7:15:20:cd:d2:18:cc:40:0e:31:55:df:e1:69:86:cf:f0:
        8a:34:f8:a6:05:48:4f:9e:bf:12:c9:48:b0:18:2e:c4:ec:8f:
        3b:4f:38:0a:ce:66:d1:72:e3:f7:db:0c:6a:0f:2d:7b:72:23:
        9a:f9:72:19:d3:0d:00:51:c8:42:e7:a5:c1:68:ec:4c:12:c2:
        c6:d2:8e:ef:50:15:ff:fe:9d:00:3d:a5:d6:94:29:49:51:d2:
        49:e8:79:d3:11:30:2e:1d:32:f2:b9:6b:68:7e:9d:9d:80:87:
        8d:6c:48:87:d0:c3:3f:35:41:a5:85:2e:2d:3f:08:d1:75:a6:
        cb:69:b3:9d:48:2a:11:07:44:9f:41:ba:81:d0:60:05:c4:dc:
        48:a3:0e:67:4d:d7:d2:46:5b:00:8a:8d:a6:3b:65:76:23:22:
        d1:29:c2:64:c1:ae:55:bc:1f:6b:71:ae:c7:8b:6e:52:42:8d:
        c3:d7:b7:d5:42:63:ae:42:1d:a4:b9:98:0a:a2:ce:57:06:1d:
        11:52:29:8e:f0:ad:7a:8a:a1:71:68:37:f4:47:b5:08:79:c6:
        bb:16:fa:8a:58:6c:ee:a6:c6:66:69:01:d0:9b:60:85:3b:ca:
        db:da:88:21:48:eb:57:24:ec:33:f1:70:57:e8:a5:cb:cf:46:
        63:a3:56:8f:c9:b7:3b:66:b8:4d:3f:25:22:5a:f7:db:67:c5:
        07:c0:a7:fe:3e:e8:0d:14:23:90:7c:6f:f8:20:78:e7:0f:b7:
        ae:ef:c1:1e:9b:df:10:2e:5b:4a:d6:f1:41:51:cd:9a:b3:d2:
        c2:c7:a5:b1:e2:b6:bc:3f:97:a5:23:33:ab:28:a5:0e:42:cd:
        48:4c:fa:61:90:24:aa:76:8d:92:df:e4:7b:19:ab:df:d8:68:
        e0:74:cf:19:85:3f:7e:da:47:36:78:c4:b4:50:fd:07:a5:58:
        b1:92:6f:46:5b:5f:19:f8:9a:6f:9c:10:89:58:c2:97:16:bc:
        d3:44:ec:b3:45:65:a3:79:39:08:09:24:99:b7:4d:38:a2:93:
        dd:1e:46:1d:78:00:be:9c:f7:ca:70:a3:b0:fa:e4:79:a0:38:
        9c:3d:b3:5d:27:b6:33:c8
-----BEGIN CERTIFICATE-----
MIIFizCCA3OgAwIBAgIBAjANBgkqhkiG9w0BAQUFADCB2DELMAkGA1UEBhMCQkEx
GTAXBgNVBAgTEFJlcHVibGlrYSBTcnBza2ExEzARBgNVBAcTCkJhbmphIEx1a2Ex
ITAfBgNVBAoTGEVsZWt0cm90ZWhuaWNraSBmYWt1bHRldDEtMCsGA1UECxMkS2F0
ZWRyYSB6YSByYWN1bmFyc3R2byBpIGluZm9ybWF0aWt1MSowKAYDVQQDEyFDQSBz
ZXJ0aWZpa2F0IC0gaXNwaXQgMjcuMDEuMjAxNi4xGzAZBgkqhkiG9w0BCQEWDGNh
QGV0ZmJsLm5ldDAeFw0yNDA1MjcyMTI3NTRaFw0zNDA1MjUyMTI3NTRaMIGsMQsw
CQYDVQQGEwJCQTEZMBcGA1UECBMQUmVwdWJsaWthIFNycHNrYTEhMB8GA1UEChMY
RWxla3Ryb3RlaG5pY2tpIGZha3VsdGV0MS0wKwYDVQQLEyRLYXRlZHJhIHphIHJh
Y3VuYXJzdHZvIGkgaW5mb3JtYXRpa3UxDzANBgNVBAMTBm1hcmtvMjEfMB0GCSqG
SIb3DQEJARYQbWFya28yQGdtYWlsLmNvbTCCASIwDQYJKoZIhvcNAQEBBQADggEP
ADCCAQoCggEBALYSdVsYigZ3WgmXxspQRRboH3XniLhbZpTnqfpUcXKL4iP4QuW5
jq6fQDYeeVDfdrMie1M+24WxRV2+gP8Rz1HbMB+joLDS8LAKnXo4eCJOlnjcXII/
tzNPV4NphbNwoh23E+Lrqv3QsNFevW624Io1fC73n9H0sCzmvguAni4TsAJr6Vgy
D38E6oi10RJEvMdEQ9kjoWEUmjmSa75oI3o93kHfLsAi7g8fE+Z2yJtqaY5jhRgp
ILO7ngFsAPwoKo3/wPGJYXE6DHJLAcBfDm28f5Uqiq+/egHaGqYDSD7r0RjTRGIZ
H4ylfl6d9AkSnmwvk8x1gns6VFRaeD3mWs0CAwEAAaOBiTCBhjAJBgNVHRMEAjAA
MAsGA1UdDwQEAwIF4DAsBglghkgBhvhCAQ0EHxYdT3BlblNTTCBHZW5lcmF0ZWQg
Q2VydGlmaWNhdGUwHQYDVR0OBBYEFE6eJIOj23fRHhWeEejuKrd8tByAMB8GA1Ud
IwQYMBaAFCyI4BwNMj71oARMjYFK2Suh6BBjMA0GCSqGSIb3DQEBBQUAA4ICAQCN
2aM6d45+fqVrSyOmVZrTeKhoHMf/rIfbA6oX8eZfQrYvuE9JagQnxyFMV/HP2epZ
eVV/WGLAnceKxo75y2jqcOrll2rH+9ta8rEAvoyKRZjfp4skj0037w8ltxUgzdIY
zEAOMVXf4WmGz/CKNPimBUhPnr8SyUiwGC7E7I87TzgKzmbRcuP32wxqDy17ciOa
+XIZ0w0AUchC56XBaOxMEsLG0o7vUBX//p0APaXWlClJUdJJ6HnTETAuHTLyuWto
fp2dgIeNbEiH0MM/NUGlhS4tPwjRdabLabOdSCoRB0SfQbqB0GAFxNxIow5nTdfS
RlsAio2mO2V2IyLRKcJkwa5VvB9rca7Hi25SQo3D17fVQmOuQh2kuZgKos5XBh0R
UimO8K16iqFxaDf0R7UIeca7FvqKWGzupsZmaQHQm2CFO8rb2oghSOtXJOwz8XBX
6KXLz0Zjo1aPybc7ZrhNPyUiWvfbZ8UHwKf+PugNFCOQfG/4IHjnD7eu78Eem98Q
LltK1vFBUc2as9LCx6Wx4ra8P5elIzOrKKUOQs1ITPphkCSqdo2S3+R7Gavf2Gjg
dM8ZhT9+2kc2eMS0UP0HpVixkm9GW18Z+JpvnBCJWMKXFrzTROyzRWWjeTkICSSZ
t004opPdHkYdeAC+nPfKcKOw+uR5oDicPbNdJ7YzyA==
-----END CERTIFICATE-----
