Certificate:
    Data:
        Version: 3 (0x2)
        Serial Number: 1 (0x1)
        Signature Algorithm: sha1WithRSAEncryption
        Issuer: C=BA, ST=RS, L=Banja Luka, O=Elektrotehnicki fakultet, OU=ETF, CN=CAcert/emailAddress=ca@mail.com
        Validity
            Not Before: Aug 27 17:24:51 2024 GMT
            Not After : Sep  1 17:24:51 2024 GMT
        Subject: C=BA, ST=RS, O=Elektrotehnicki fakultet, OU=ETF, CN=Klijent1/emailAddress=k1@mail.com
        Subject Public Key Info:
            Public Key Algorithm: rsaEncryption
                Public-Key: (2048 bit)
                Modulus:
                    00:ba:3f:79:35:f0:87:79:9b:fc:b5:f1:65:a0:95:
                    de:9a:54:90:c8:2c:16:ab:b7:dc:cf:2d:5d:0b:63:
                    d9:91:13:6c:63:b4:c4:1f:40:23:cc:79:49:c9:d3:
                    30:51:6e:ed:36:a1:d3:d4:d1:c7:70:cf:73:45:ec:
                    d3:af:0f:87:58:4d:20:89:78:65:69:43:53:8a:4e:
                    98:db:52:f9:c5:3c:fc:b9:c1:c6:a4:5c:1b:84:2a:
                    32:42:26:54:21:3f:a6:f8:1c:40:81:23:16:83:1d:
                    1c:62:e9:85:0d:f0:56:b9:ce:15:94:eb:1d:be:e5:
                    41:ce:4a:79:fa:39:b1:3f:b4:e8:20:3e:4f:0e:15:
                    5c:3d:d0:b6:b3:bd:4a:d4:c2:d7:e2:be:1f:ff:c1:
                    ae:52:0b:f1:2b:67:5a:52:eb:9d:b8:8b:11:8f:c1:
                    9e:ab:d7:b0:07:80:2c:3d:85:02:ac:17:a3:5c:e8:
                    7b:b3:b3:7c:ef:65:e7:5d:e6:3f:26:e0:97:ad:d8:
                    a6:e2:6c:f6:7a:69:77:fa:2e:86:54:46:f7:4a:72:
                    b4:85:47:e0:ac:c9:b5:ca:51:dd:30:3f:9b:00:ce:
                    88:68:cb:cb:0c:86:89:cf:eb:6f:39:fa:ef:14:11:
                    5e:5f:d4:01:ef:59:bc:5a:45:03:b5:58:8b:9a:47:
                    6f:9d
                Exponent: 65537 (0x10001)
        X509v3 extensions:
            X509v3 Basic Constraints: 
                CA:FALSE
            X509v3 Key Usage: 
                Digital Signature
            X509v3 Extended Key Usage: 
                TLS Web Client Authentication
            Netscape Comment: 
                OpenSSL Generated Certificate
            X509v3 Subject Key Identifier: 
                16:4C:2B:50:11:78:C2:73:24:DF:25:C5:A0:EC:B2:48:CE:C4:AE:7A
            X509v3 Authority Key Identifier: 
                4E:15:CD:09:FA:5A:C6:E7:32:D0:30:57:55:F2:82:5C:8C:C2:BC:89
            X509v3 CRL Distribution Points: 
                Full Name:
                  URI:http://192.168.21.89/rootcrl.pem
    Signature Algorithm: sha1WithRSAEncryption
    Signature Value:
        5a:ab:40:c1:f7:99:78:74:44:ec:f6:57:e0:a0:83:d7:0e:48:
        a0:de:54:7b:1f:9b:2c:8a:a5:c8:c7:00:04:90:d3:02:27:5f:
        42:68:dc:38:47:d2:fe:09:df:1d:a5:9a:7f:fd:1c:0c:9b:0e:
        4f:9f:6d:be:8d:a8:7b:71:55:d9:03:46:d4:f4:d2:1a:d4:cb:
        ff:08:70:1d:66:e8:bb:0b:e0:29:6b:90:b1:fd:0d:8a:3d:7c:
        08:db:e7:d9:81:48:f2:d8:68:7a:80:4b:76:31:80:89:00:a8:
        f9:6b:0b:a0:66:d4:7c:9a:30:d3:a1:df:7a:68:d3:c9:c6:cf:
        22:3c:46:92:39:3b:2b:6c:d3:45:3b:12:bc:d5:52:0b:cb:4d:
        a2:70:b5:c5:6b:9e:ac:70:39:16:66:28:dd:05:bb:99:d9:24:
        4a:b5:de:97:95:4c:9f:eb:77:10:38:b3:2e:3b:ff:15:31:ad:
        23:18:3a:97:d4:5b:9c:25:d6:26:89:9c:7c:a9:18:49:77:09:
        9b:52:ef:5d:fe:b4:80:92:90:db:21:59:86:17:b8:10:ef:82:
        74:a2:7c:c6:41:3b:a2:87:c2:fd:eb:28:42:d7:1b:1b:42:09:
        02:a0:36:78:8d:74:98:61:78:36:68:10:51:f2:67:5c:38:94:
        c5:95:ff:7e
-----BEGIN CERTIFICATE-----
MIIEVTCCAz2gAwIBAgIBATANBgkqhkiG9w0BAQUFADCBjTELMAkGA1UEBhMCQkEx
CzAJBgNVBAgTAlJTMRMwEQYDVQQHEwpCYW5qYSBMdWthMSEwHwYDVQQKExhFbGVr
dHJvdGVobmlja2kgZmFrdWx0ZXQxDDAKBgNVBAsTA0VURjEPMA0GA1UEAxMGQ0Fj
ZXJ0MRowGAYJKoZIhvcNAQkBFgtjYUBtYWlsLmNvbTAeFw0yNDA4MjcxNzI0NTFa
Fw0yNDA5MDExNzI0NTFaMHoxCzAJBgNVBAYTAkJBMQswCQYDVQQIEwJSUzEhMB8G
A1UEChMYRWxla3Ryb3RlaG5pY2tpIGZha3VsdGV0MQwwCgYDVQQLEwNFVEYxETAP
BgNVBAMTCEtsaWplbnQxMRowGAYJKoZIhvcNAQkBFgtrMUBtYWlsLmNvbTCCASIw
DQYJKoZIhvcNAQEBBQADggEPADCCAQoCggEBALo/eTXwh3mb/LXxZaCV3ppUkMgs
Fqu33M8tXQtj2ZETbGO0xB9AI8x5ScnTMFFu7Tah09TRx3DPc0Xs068Ph1hNIIl4
ZWlDU4pOmNtS+cU8/LnBxqRcG4QqMkImVCE/pvgcQIEjFoMdHGLphQ3wVrnOFZTr
Hb7lQc5Kefo5sT+06CA+Tw4VXD3QtrO9StTC1+K+H//BrlIL8StnWlLrnbiLEY/B
nqvXsAeALD2FAqwXo1zoe7OzfO9l513mPybgl63YpuJs9nppd/ouhlRG90pytIVH
4KzJtcpR3TA/mwDOiGjLywyGic/rbzn67xQRXl/UAe9ZvFpFA7VYi5pHb50CAwEA
AaOB0TCBzjAJBgNVHRMEAjAAMAsGA1UdDwQEAwIHgDATBgNVHSUEDDAKBggrBgEF
BQcDAjAsBglghkgBhvhCAQ0EHxYdT3BlblNTTCBHZW5lcmF0ZWQgQ2VydGlmaWNh
dGUwHQYDVR0OBBYEFBZMK1AReMJzJN8lxaDsskjOxK56MB8GA1UdIwQYMBaAFE4V
zQn6WsbnMtAwV1XyglyMwryJMDEGA1UdHwQqMCgwJqAkoCKGIGh0dHA6Ly8xOTIu
MTY4LjIxLjg5L3Jvb3RjcmwucGVtMA0GCSqGSIb3DQEBBQUAA4IBAQBaq0DB95l4
dETs9lfgoIPXDkig3lR7H5ssiqXIxwAEkNMCJ19CaNw4R9L+Cd8dpZp//RwMmw5P
n22+jah7cVXZA0bU9NIa1Mv/CHAdZui7C+Apa5Cx/Q2KPXwI2+fZgUjy2Gh6gEt2
MYCJAKj5awugZtR8mjDTod96aNPJxs8iPEaSOTsrbNNFOxK81VILy02icLXFa56s
cDkWZijdBbuZ2SRKtd6XlUyf63cQOLMuO/8VMa0jGDqX1FucJdYmiZx8qRhJdwmb
Uu9d/rSAkpDbIVmGF7gQ74J0onzGQTuih8L96yhC1xsbQgkCoDZ4jXSYYXg2aBBR
8mdcOJTFlf9+
-----END CERTIFICATE-----
