Certificate:
    Data:
        Version: 3 (0x2)
        Serial Number: 2 (0x2)
        Signature Algorithm: sha1WithRSAEncryption
        Issuer: C=BA, ST=RS, L=Banja Luka, O=Elektrotehnicki fakultet, OU=ETF, CN=rootCA/emailAddress=camail
        Validity
            Not Before: Aug 25 17:30:09 2024 GMT
            Not After : Aug 30 17:30:09 2024 GMT
        Subject: C=BA, ST=RS, O=Elektrotehnicki fakultet, OU=ETF, CN=Klijent2/emailAddress=k2
        Subject Public Key Info:
            Public Key Algorithm: rsaEncryption
                Public-Key: (2048 bit)
                Modulus:
                    00:c1:7a:4a:43:1e:46:40:10:90:0e:4d:f5:77:db:
                    36:db:09:ec:86:36:9d:82:b2:c8:8c:a8:c5:0c:53:
                    99:d0:6b:ca:d1:91:a0:ea:e2:bd:4c:9a:e0:e9:a5:
                    63:e4:9e:7d:ec:dc:30:e3:9b:dd:e6:ef:67:f5:4f:
                    0e:25:3d:5a:77:36:a1:57:73:55:78:de:80:50:57:
                    c8:15:96:37:bb:dd:30:21:10:06:25:83:06:ce:f7:
                    45:1c:08:4b:4c:77:b9:fe:be:7c:49:b3:4b:65:25:
                    d9:69:51:b2:3e:7f:ab:d3:00:19:36:f3:f5:de:50:
                    93:97:60:4e:a4:f8:d6:d0:58:22:de:f4:b7:37:e5:
                    40:0f:2d:ae:96:c6:b2:f4:f1:62:f2:51:98:f1:95:
                    58:40:2f:f7:47:af:c5:45:d7:cc:1d:a7:8b:7e:57:
                    8e:06:e9:83:b3:4c:c4:18:10:43:ba:d3:de:50:88:
                    a9:a6:ac:4d:40:5e:fa:bc:17:ae:b8:22:04:5f:04:
                    06:da:08:e4:34:cc:a7:03:94:ec:e2:89:41:8a:46:
                    e7:6b:37:4a:60:d8:6a:ab:70:5d:a8:0e:26:4e:7e:
                    97:c5:58:69:88:4f:43:f3:e4:ed:fc:3c:3d:3d:b2:
                    41:ce:67:88:16:a6:73:7f:ac:c2:ab:9f:09:c6:82:
                    9b:07
                Exponent: 65537 (0x10001)
        X509v3 extensions:
            X509v3 Basic Constraints: 
                CA:FALSE
            X509v3 Key Usage: 
                Digital Signature
            X509v3 Extended Key Usage: 
                TLS Web Client Authentication
            Netscape Comment: 
                OpenSSL Generated Certificate
            X509v3 Subject Key Identifier: 
                86:CC:0E:05:67:39:C3:47:35:E8:A9:F0:EA:DC:8C:74:B2:23:0A:68
            X509v3 Authority Key Identifier: 
                C9:1F:17:27:20:ED:62:93:48:1A:0D:1B:99:28:79:E2:9A:C7:2F:1B
            X509v3 CRL Distribution Points: 
                Full Name:
                  URI:http://192.168.21.89/rootcrl.pem
    Signature Algorithm: sha1WithRSAEncryption
    Signature Value:
        0f:cb:e4:d9:97:1a:b9:d6:02:e7:16:d6:8c:99:00:9f:7c:99:
        66:6a:eb:40:35:fe:7d:e1:01:ad:e1:c3:2b:9b:cb:8b:90:4f:
        59:02:70:69:ed:32:df:b6:e2:e5:bb:9b:0b:3d:10:3a:24:e9:
        2f:e8:df:b7:1b:99:e1:b3:0c:ff:d2:36:cf:7f:84:01:44:c7:
        e6:91:7b:5d:fd:7c:df:56:d4:52:b9:0f:26:fe:82:47:31:db:
        34:b2:87:76:bd:0b:b9:75:8b:ff:ea:73:74:0b:ce:00:89:95:
        54:72:1b:3b:d5:00:cd:fe:e1:de:98:af:70:0d:f4:b9:a4:50:
        26:de:5c:e8:a9:50:a6:7f:49:b7:8b:8a:a8:27:61:b0:8b:17:
        f8:17:ac:b7:14:f7:f6:5b:d7:eb:12:0b:f3:59:75:7b:b1:8a:
        37:93:ca:3c:e3:71:7c:a1:aa:44:67:af:fa:da:a5:d2:36:b9:
        e2:3f:77:b8:9c:a3:65:9d:4e:2a:ee:41:24:d0:21:d7:67:9a:
        17:a0:68:d5:e7:df:6c:a9:a4:03:93:a2:f7:0c:0f:b2:8d:99:
        1f:85:23:5f:a9:81:b7:da:77:26:02:4d:5a:52:c6:75:bd:b3:
        c4:91:3f:5a:c1:20:43:a4:10:77:ac:06:33:a4:28:9c:05:53:
        8e:ad:c8:f0
-----BEGIN CERTIFICATE-----
MIIERzCCAy+gAwIBAgIBAjANBgkqhkiG9w0BAQUFADCBiDELMAkGA1UEBhMCQkEx
CzAJBgNVBAgTAlJTMRMwEQYDVQQHEwpCYW5qYSBMdWthMSEwHwYDVQQKExhFbGVr
dHJvdGVobmlja2kgZmFrdWx0ZXQxDDAKBgNVBAsTA0VURjEPMA0GA1UEAxMGcm9v
dENBMRUwEwYJKoZIhvcNAQkBFgZjYW1haWwwHhcNMjQwODI1MTczMDA5WhcNMjQw
ODMwMTczMDA5WjBxMQswCQYDVQQGEwJCQTELMAkGA1UECBMCUlMxITAfBgNVBAoT
GEVsZWt0cm90ZWhuaWNraSBmYWt1bHRldDEMMAoGA1UECxMDRVRGMREwDwYDVQQD
EwhLbGlqZW50MjERMA8GCSqGSIb3DQEJARYCazIwggEiMA0GCSqGSIb3DQEBAQUA
A4IBDwAwggEKAoIBAQDBekpDHkZAEJAOTfV32zbbCeyGNp2CssiMqMUMU5nQa8rR
kaDq4r1MmuDppWPknn3s3DDjm93m72f1Tw4lPVp3NqFXc1V43oBQV8gVlje73TAh
EAYlgwbO90UcCEtMd7n+vnxJs0tlJdlpUbI+f6vTABk28/XeUJOXYE6k+NbQWCLe
9Lc35UAPLa6WxrL08WLyUZjxlVhAL/dHr8VF18wdp4t+V44G6YOzTMQYEEO6095Q
iKmmrE1AXvq8F664IgRfBAbaCOQ0zKcDlOziiUGKRudrN0pg2GqrcF2oDiZOfpfF
WGmIT0Pz5O38PD09skHOZ4gWpnN/rMKrnwnGgpsHAgMBAAGjgdEwgc4wCQYDVR0T
BAIwADALBgNVHQ8EBAMCB4AwEwYDVR0lBAwwCgYIKwYBBQUHAwIwLAYJYIZIAYb4
QgENBB8WHU9wZW5TU0wgR2VuZXJhdGVkIENlcnRpZmljYXRlMB0GA1UdDgQWBBSG
zA4FZznDRzXoqfDq3Ix0siMKaDAfBgNVHSMEGDAWgBTJHxcnIO1ik0gaDRuZKHni
mscvGzAxBgNVHR8EKjAoMCagJKAihiBodHRwOi8vMTkyLjE2OC4yMS44OS9yb290
Y3JsLnBlbTANBgkqhkiG9w0BAQUFAAOCAQEAD8vk2ZcaudYC5xbWjJkAn3yZZmrr
QDX+feEBreHDK5vLi5BPWQJwae0y37bi5bubCz0QOiTpL+jftxuZ4bMM/9I2z3+E
AUTH5pF7Xf1831bUUrkPJv6CRzHbNLKHdr0LuXWL/+pzdAvOAImVVHIbO9UAzf7h
3pivcA30uaRQJt5c6KlQpn9Jt4uKqCdhsIsX+BestxT39lvX6xIL81l1e7GKN5PK
PONxfKGqRGev+tql0ja54j93uJyjZZ1OKu5BJNAh12eaF6Bo1effbKmkA5Oi9wwP
so2ZH4UjX6mBt9p3JgJNWlLGdb2zxJE/WsEgQ6QQd6wGM6QonAVTjq3I8A==
-----END CERTIFICATE-----
