Certificate:
    Data:
        Version: 3 (0x2)
        Serial Number: 18 (0x12)
        Signature Algorithm: sha1WithRSAEncryption
        Issuer: C=BA, ST=Republika Srpska, O=Elektrotehnicki fakultet, L=Banja Luka, OU=Katedra za racunarstvo i informatiku, CN=CA tjelo/emailAddress=ca@gmail.com
        Validity
            Not Before: Jul 25 20:09:09 2024 GMT
            Not After : Jul 23 20:09:09 2034 GMT
        Subject: C=BA, ST=Republika Srpska, L=Banja Luka, O=Elektrotehnicki fakultet, OU=Katedra za racunarstvo i informatiku, CN=Korisnik 1/emailAddress=k1@gmail.com
        Subject Public Key Info:
            Public Key Algorithm: rsaEncryption
                Public-Key: (2048 bit)
                Modulus:
                    00:a5:2d:a3:fa:e9:20:24:40:6f:c5:d3:6d:21:24:
                    90:1b:d0:7b:11:e5:8e:c2:13:95:66:a7:f6:ae:df:
                    32:95:d3:aa:0a:a2:d9:c5:a5:11:51:16:55:c7:3a:
                    00:cf:b6:bd:c1:0b:36:f7:a3:81:7f:88:25:34:d7:
                    5b:14:c6:ee:18:f9:d5:99:8c:b1:04:c0:24:09:f6:
                    40:ad:b4:0e:27:05:6e:d4:d8:5c:f6:e1:25:4b:a8:
                    22:23:e0:4a:48:29:ea:36:22:d5:f3:cf:c7:24:ac:
                    13:19:8c:8b:84:0f:18:8d:ec:73:e2:32:9c:89:99:
                    48:46:e6:ea:6d:40:c4:08:60:66:b0:df:61:0e:07:
                    63:81:7c:a8:8e:da:4c:fd:2d:65:a9:fa:40:12:a4:
                    d2:02:e8:60:a8:f8:72:1d:54:97:66:82:62:3d:fc:
                    4c:12:49:e2:10:3c:49:cd:54:df:cc:66:ed:73:ac:
                    72:15:97:d2:61:43:d3:d0:01:dc:8d:a3:a4:55:d3:
                    e2:8d:75:49:53:d2:8c:f6:83:65:f7:b6:64:f8:93:
                    12:e7:7b:24:51:96:34:10:89:91:d3:cf:d9:f1:b1:
                    da:2b:c4:cb:d8:b5:f5:61:52:47:97:c0:b1:c6:2b:
                    78:8f:fa:ae:af:e6:54:eb:94:dc:05:da:5d:95:15:
                    40:95
                Exponent: 65537 (0x10001)
        X509v3 extensions:
            X509v3 Basic Constraints: 
                CA:FALSE
            Netscape Cert Type: 
                SSL Client, S/MIME
            X509v3 Key Usage: 
                Digital Signature, CRL Sign
            Netscape Comment: 
                OpenSSL Generated Certificate
            X509v3 Subject Key Identifier: 
                46:4D:F7:15:99:8D:F2:6D:EF:5F:75:B7:35:3B:E7:E0:F6:6F:4B:34
            X509v3 Authority Key Identifier: 
                D1:0E:7A:46:1C:66:7B:8D:B2:B7:47:D1:B8:D5:D7:E1:D0:9D:76:D7
    Signature Algorithm: sha1WithRSAEncryption
    Signature Value:
        21:27:b6:d4:f4:a4:fb:09:b0:3b:8d:d8:5c:62:dc:e5:7c:79:
        31:9c:68:84:17:a6:48:9a:69:b1:96:dc:7e:f9:71:58:84:e5:
        67:38:11:61:90:f5:ac:d6:e3:34:17:1d:61:c1:64:a1:10:25:
        ed:c3:8c:a3:4b:0a:b0:89:81:18:a7:2f:5f:f6:95:81:6a:22:
        2f:60:34:2f:94:9a:e3:7a:bb:a7:52:27:f2:07:94:ce:f2:85:
        98:f9:0a:c9:27:44:48:f0:bb:e7:b5:76:77:8d:47:06:5c:d1:
        34:09:c0:46:e2:e2:b7:ea:bb:c8:e2:80:e3:16:96:f3:13:34:
        38:e7:ef:dd:db:b6:9e:fa:ca:8d:07:be:b3:47:97:39:84:8f:
        75:45:29:8d:4b:f6:85:21:e2:88:67:9d:0a:15:9a:8f:96:d7:
        d4:55:d6:4d:ff:e8:5f:53:16:90:d8:38:ec:14:12:06:ba:38:
        4c:1d:03:14:76:b4:78:d6:bf:8e:26:8e:96:5d:cd:6a:32:a9:
        d4:cf:78:9d:16:7a:e9:7e:82:07:28:8e:7b:3a:24:b4:41:69:
        e2:4e:5c:e9:bf:6c:ff:6c:dd:50:cc:cb:cb:f6:cd:9f:58:49:
        8c:ff:2f:52:fa:7a:b7:8e:ea:10:8a:b0:33:ae:7f:d7:1a:cc:
        9f:e0:5f:c5:86:78:58:ab:2e:f1:30:95:1f:9b:12:f9:88:0a:
        96:a2:5f:5a:71:42:0c:df:d8:6c:57:4b:63:e9:0c:0f:f7:15:
        f9:78:95:6a:3c:80:4f:ac:7e:34:aa:b0:77:41:df:62:ce:88:
        0a:86:e0:f4:40:d0:c4:36:6c:e9:b2:bf:8b:86:de:11:75:1f:
        92:10:68:8d:c4:ef:5b:cf:ec:e8:78:13:68:2a:39:05:3a:29:
        ee:42:70:90:c6:32:f0:c7:bb:10:63:2e:7b:59:79:00:4b:c6:
        b1:0b:0f:da:a7:c0:bd:e3:35:26:4f:1a:3a:8c:a6:d2:f3:d2:
        b2:d7:71:64:0d:d2:27:74:ad:4a:d9:47:2f:09:c8:49:b3:44:
        d8:cf:09:88:02:1c:85:80:e6:23:23:44:b6:77:4f:f1:d5:9f:
        7d:1c:f7:68:c5:10:f7:8a:ce:28:4d:e3:2e:b4:d6:1a:97:cb:
        44:6b:fa:85:1c:f1:b8:d7:af:15:08:62:b8:6c:fd:e9:ab:ea:
        91:bb:50:66:2a:b8:c4:03:a8:63:3b:22:68:62:c8:74:fb:ea:
        24:4f:ed:29:a0:cc:47:e2:21:08:18:a9:68:18:c0:96:e7:9c:
        95:2d:b8:bd:9d:88:7a:c6:47:be:31:51:bb:28:bb:ef:4b:07:
        f3:73:46:b6:06:af:88:e2:58:57:1a:94:bc:b1:32:f9:25:30:
        37:14:be:af:83:c1:26:d8:b1:0d:ad:36:51:7d:47:54:a6:65:
        6f:1c:74:7c:aa:dc:89:0f:ca:c1:e0:a2:28:69:23:5c:6f:9f:
        e9:1f:cc:5e:f3:38:6d:9d:b9:92:ef:2b:f0:b4:b5:85:30:8d:
        0a:11:3d:10:9d:6e:49:05:b1:bd:9a:a7:63:19:c0:a1:8d:48:
        d9:ba:c4:29:a0:0a:eb:a2:57:bf:d9:0f:e8:ed:d5:9f:5c:fd:
        7d:d9:6a:08:d0:37:74:d6:c4:88:db:3a:1f:89:13:12:a7:ee:
        df:fb:51:01:c5:84:03:ef:85:fd:44:20:bb:6b:2b:9b:13:77:
        06:05:e7:81:a6:18:00:b1:c0:76:7d:2d:e3:59:96:df:fc:33:
        e7:76:8b:ce:13:fd:59:e3:89:99:31:29:22:e2:d7:48:c2:05:
        f5:dc:cc:39:71:b7:79:41:c6:68:d3:de:b7:9d:95:e0:18:5b:
        c7:a0:de:90:8b:b4:a4:98:20:bf:7d:5a:f1:8e:db:c7:f4:57:
        c7:64:c7:1a:fb:91:f8:b8:dd:ae:d1:39:c7:8d:ef:5e:62:09:
        52:04:ed:94:ec:7b:f4:52:e4:9c:35:21:21:f0:78:fe:cf:63:
        84:9a:44:b7:ea:f1:b8:3d:4e:c8:7b:d0:4a:92:12:bf:d4:41:
        77:cc:dc:b7:07:e8:f8:fa:6b:7f:ac:41:20:f7:9c:fd:b4:41:
        15:38:61:5b:20:1b:08:83:a0:ed:7f:ab:72:e7:1c:d2:e9:b0:
        45:39:3a:e8:fd:1f:38:d2:4a:11:b2:25:71:24:98:78:0a:c3:
        ce:1c:96:e1:6f:bc:57:51:cf:cb:1d:8d:e5:44:f7:00:66:b2:
        20:bc:1c:1c:b5:16:b6:e1:48:06:0b:1e:46:72:cf:90:f6:3a:
        8a:ac:1b:3a:13:f4:7e:ec:6a:da:f7:52:3d:0d:98:a9:44:df:
        23:db:f6:73:c6:19:78:46:fb:18:ab:20:8c:0d:a4:b6:dc:d8:
        b2:59:44:45:55:9f:9f:dc:bc:20:45:c3:4f:03:f2:be:5b:b1:
        9b:85:12:14:f6:0f:a1:2e:0e:3f:f3:df:3a:b7:24:44:f1:53:
        4b:ce:d8:1f:0d:63:82:a1:62:43:b8:46:24:e5:f4:51:88:b1:
        f1:0f:f1:f0:6e:5a:3a:68:08:84:ff:1e:65:19:78:a6:78:8d:
        80:b3:5e:f7:ef:62:0d:84:cd:fa:10:c1:5f:d8:7a:62:34:5f:
        02:5d:a4:3b:4f:0a:8b:c5:b2:e1:07:7e:11:d9:44:a3:5d:02:
        86:91:c7:bc:3c:07:e3:c5:80:88:ef:76:92:b3:02:e5
-----BEGIN CERTIFICATE-----
MIIHmjCCA4KgAwIBAgIBEjANBgkqhkiG9w0BAQUFADCBvzELMAkGA1UEBhMCQkEx
GTAXBgNVBAgTEFJlcHVibGlrYSBTcnBza2ExITAfBgNVBAoTGEVsZWt0cm90ZWhu
aWNraSBmYWt1bHRldDETMBEGA1UEBxMKQmFuamEgTHVrYTEtMCsGA1UECxMkS2F0
ZWRyYSB6YSByYWN1bmFyc3R2byBpIGluZm9ybWF0aWt1MREwDwYDVQQDEwhDQSB0
amVsbzEbMBkGCSqGSIb3DQEJARYMY2FAZ21haWwuY29tMB4XDTI0MDcyNTIwMDkw
OVoXDTM0MDcyMzIwMDkwOVowgcExCzAJBgNVBAYTAkJBMRkwFwYDVQQIExBSZXB1
Ymxpa2EgU3Jwc2thMRMwEQYDVQQHEwpCYW5qYSBMdWthMSEwHwYDVQQKExhFbGVr
dHJvdGVobmlja2kgZmFrdWx0ZXQxLTArBgNVBAsTJEthdGVkcmEgemEgcmFjdW5h
cnN0dm8gaSBpbmZvcm1hdGlrdTETMBEGA1UEAxMKS29yaXNuaWsgMTEbMBkGCSqG
SIb3DQEJARYMazFAZ21haWwuY29tMIIBIjANBgkqhkiG9w0BAQEFAAOCAQ8AMIIB
CgKCAQEApS2j+ukgJEBvxdNtISSQG9B7EeWOwhOVZqf2rt8yldOqCqLZxaURURZV
xzoAz7a9wQs296OBf4glNNdbFMbuGPnVmYyxBMAkCfZArbQOJwVu1Nhc9uElS6gi
I+BKSCnqNiLV88/HJKwTGYyLhA8Yjexz4jKciZlIRubqbUDECGBmsN9hDgdjgXyo
jtpM/S1lqfpAEqTSAuhgqPhyHVSXZoJiPfxMEkniEDxJzVTfzGbtc6xyFZfSYUPT
0AHcjaOkVdPijXVJU9KM9oNl97Zk+JMS53skUZY0EImR08/Z8bHaK8TL2LX1YVJH
l8Cxxit4j/qur+ZU65TcBdpdlRVAlQIDAQABo4GcMIGZMAkGA1UdEwQCMAAwEQYJ
YIZIAYb4QgEBBAQDAgWgMAsGA1UdDwQEAwIBgjAsBglghkgBhvhCAQ0EHxYdT3Bl
blNTTCBHZW5lcmF0ZWQgQ2VydGlmaWNhdGUwHQYDVR0OBBYEFEZN9xWZjfJt7191
tzU75+D2b0s0MB8GA1UdIwQYMBaAFNEOekYcZnuNsrdH0bjV1+HQnXbXMA0GCSqG
SIb3DQEBBQUAA4IEAQAhJ7bU9KT7CbA7jdhcYtzlfHkxnGiEF6ZImmmxltx++XFY
hOVnOBFhkPWs1uM0Fx1hwWShECXtw4yjSwqwiYEYpy9f9pWBaiIvYDQvlJrjerun
UifyB5TO8oWY+QrJJ0RI8LvntXZ3jUcGXNE0CcBG4uK36rvI4oDjFpbzEzQ45+/d
27ae+sqNB76zR5c5hI91RSmNS/aFIeKIZ50KFZqPltfUVdZN/+hfUxaQ2DjsFBIG
ujhMHQMUdrR41r+OJo6WXc1qMqnUz3idFnrpfoIHKI57OiS0QWniTlzpv2z/bN1Q
zMvL9s2fWEmM/y9S+nq3juoQirAzrn/XGsyf4F/FhnhYqy7xMJUfmxL5iAqWol9a
cUIM39hsV0tj6QwP9xX5eJVqPIBPrH40qrB3Qd9izogKhuD0QNDENmzpsr+Lht4R
dR+SEGiNxO9bz+zoeBNoKjkFOinuQnCQxjLwx7sQYy57WXkAS8axCw/ap8C94zUm
Txo6jKbS89Ky13FkDdIndK1K2UcvCchJs0TYzwmIAhyFgOYjI0S2d0/x1Z99HPdo
xRD3is4oTeMutNYal8tEa/qFHPG4168VCGK4bP3pq+qRu1BmKrjEA6hjOyJoYsh0
++okT+0poMxH4iEIGKloGMCW55yVLbi9nYh6xke+MVG7KLvvSwfzc0a2Bq+I4lhX
GpS8sTL5JTA3FL6vg8Em2LENrTZRfUdUpmVvHHR8qtyJD8rB4KIoaSNcb5/pH8xe
8zhtnbmS7yvwtLWFMI0KET0QnW5JBbG9mqdjGcChjUjZusQpoArrole/2Q/o7dWf
XP192WoI0Dd01sSI2zofiRMSp+7f+1EBxYQD74X9RCC7ayubE3cGBeeBphgAscB2
fS3jWZbf/DPndovOE/1Z44mZMSki4tdIwgX13Mw5cbd5QcZo0963nZXgGFvHoN6Q
i7SkmCC/fVrxjtvH9FfHZMca+5H4uN2u0TnHje9eYglSBO2U7Hv0UuScNSEh8Hj+
z2OEmkS36vG4PU7Ie9BKkhK/1EF3zNy3B+j4+mt/rEEg95z9tEEVOGFbIBsIg6Dt
f6ty5xzS6bBFOTro/R840koRsiVxJJh4CsPOHJbhb7xXUc/LHY3lRPcAZrIgvBwc
tRa24UgGCx5Gcs+Q9jqKrBs6E/R+7Gra91I9DZipRN8j2/Zzxhl4RvsYqyCMDaS2
3NiyWURFVZ+f3LwgRcNPA/K+W7GbhRIU9g+hLg4/8986tyRE8VNLztgfDWOCoWJD
uEYk5fRRiLHxD/Hwblo6aAiE/x5lGXimeI2As17372INhM36EMFf2HpiNF8CXaQ7
TwqLxbLhB34R2USjXQKGkce8PAfjxYCI73aSswLl
-----END CERTIFICATE-----
