Certificate:
    Data:
        Version: 3 (0x2)
        Serial Number: 3 (0x3)
        Signature Algorithm: sha1WithRSAEncryption
        Issuer: C=BA, ST=Republika Srpska, L=Banja Luka, O=Elektrotehnicki fakultet, OU=Katedra za racunarstvo i informatiku, CN=CA sertifikat - ispit 27.01.2016./emailAddress=ca@etfbl.net
        Validity
            Not Before: May 27 21:27:55 2024 GMT
            Not After : May 25 21:27:55 2034 GMT
        Subject: C=BA, ST=Republika Srpska, O=Elektrotehnicki fakultet, OU=Katedra za racunarstvo i informatiku, CN=marko3/emailAddress=marko3@gmail.com
        Subject Public Key Info:
            Public Key Algorithm: rsaEncryption
                Public-Key: (2048 bit)
                Modulus:
                    00:ba:a0:65:81:dd:b5:2c:a4:d4:e0:50:14:3d:fb:
                    6b:d4:bf:6f:94:b1:d8:ab:83:d6:68:1c:2f:ca:1f:
                    e8:91:7c:c7:2d:dc:f7:d2:f4:4c:99:83:1c:d9:51:
                    9b:b7:fd:54:7b:4a:e3:b1:21:d6:9d:2c:da:b4:2f:
                    6a:b2:88:3c:c1:e1:b5:ce:81:84:9e:f1:da:e5:f1:
                    78:7b:9d:ac:98:ee:72:ce:b1:c8:f9:88:8e:56:79:
                    bf:fe:75:b7:f7:5e:8c:9f:fb:40:b4:ae:2a:f5:0f:
                    40:c0:b6:84:99:a3:b7:c5:13:f4:c7:50:5c:ce:cb:
                    e7:8e:04:bf:23:ba:16:31:a9:c6:8e:7f:e7:91:2d:
                    64:0f:22:85:0c:20:06:c0:2f:8a:75:39:32:53:ce:
                    e4:ed:f6:76:d9:21:18:01:12:4e:81:b9:ca:c2:2f:
                    03:dc:8f:8b:22:5f:69:7f:b2:cc:4c:e9:60:e2:98:
                    05:3d:90:96:91:43:c5:2e:67:e0:cc:76:04:68:3b:
                    0d:c1:87:6d:b6:15:57:2d:8d:f7:52:b8:e4:59:06:
                    5f:00:2d:53:4b:33:3b:da:28:ef:1c:27:0c:d9:56:
                    07:04:a7:df:80:06:21:30:ce:17:41:1e:0b:2d:52:
                    74:25:d1:3b:f4:da:a2:23:33:f6:fe:00:5b:4a:a6:
                    2b:2d
                Exponent: 65537 (0x10001)
        X509v3 extensions:
            X509v3 Basic Constraints: 
                CA:FALSE
            X509v3 Key Usage: 
                Digital Signature, Non Repudiation, Key Encipherment
            Netscape Comment: 
                OpenSSL Generated Certificate
            X509v3 Subject Key Identifier: 
                0C:EE:06:10:30:1E:94:9F:CF:9A:A6:91:28:B6:94:CA:AE:80:D3:84
            X509v3 Authority Key Identifier: 
                2C:88:E0:1C:0D:32:3E:F5:A0:04:4C:8D:81:4A:D9:2B:A1:E8:10:63
    Signature Algorithm: sha1WithRSAEncryption
    Signature Value:
        47:95:a8:0d:b7:04:1c:5d:f2:67:83:5e:5f:41:05:6f:ef:da:
        7c:ef:04:d4:d2:1e:b3:dd:3a:19:1b:83:f1:53:10:d1:a2:69:
        43:4f:1f:ad:86:70:7a:bf:fb:0e:2a:bd:c6:31:ec:53:81:d3:
        d5:28:80:b3:77:2c:cc:24:b4:03:80:31:5b:bb:03:52:a6:b3:
        95:0a:15:c0:e0:2c:4f:57:ca:df:9e:c1:32:ad:8d:e4:c3:00:
        13:f1:75:3f:4c:b4:81:22:ed:10:78:6a:60:6b:5a:20:5f:b6:
        31:10:2f:65:e6:72:3c:47:be:1d:fb:e6:81:92:03:89:c8:a8:
        02:03:86:aa:f9:82:2c:d9:e0:2d:af:75:fe:57:5b:65:bc:ff:
        f5:7c:0e:8c:ee:06:0f:70:08:e4:a4:a8:15:b8:33:97:40:a5:
        18:36:52:e7:48:e9:a0:f4:dd:5a:b8:14:41:3e:bf:62:dd:09:
        33:6c:fa:ed:01:67:e2:2b:eb:18:46:d1:f6:3c:b7:ef:f5:6d:
        33:b3:24:16:fb:ed:f5:35:27:1d:90:67:73:e5:d4:a4:ee:6b:
        f9:e2:24:92:59:d2:18:78:15:30:2d:52:a2:fb:e8:ab:32:58:
        e4:ec:57:f0:ae:eb:f7:c6:ef:29:cd:3a:a0:bb:06:d7:b6:af:
        22:d2:31:f5:42:df:aa:19:de:61:8f:39:e9:ff:78:89:12:84:
        51:f1:6f:69:4d:6e:7b:12:ad:2e:4d:4d:15:28:e6:c0:05:08:
        1c:20:c0:9e:54:31:3f:45:ac:95:b8:91:61:db:5b:d8:9b:6c:
        d5:f3:44:5f:01:ee:62:c0:90:74:59:64:39:6e:4f:e1:d1:fb:
        ee:95:93:c3:ee:57:2d:a2:0c:6e:d6:fb:b8:36:f9:a6:48:ad:
        d8:e9:72:bd:57:c6:6c:bf:99:74:a4:b5:19:dd:3a:5e:89:97:
        aa:94:4e:02:78:34:82:cb:ca:34:5f:f8:48:ed:bc:92:d7:d6:
        c4:17:59:cd:7f:ae:b5:7a:1b:92:9e:9e:f2:71:d4:42:74:c1:
        fb:cf:83:75:c3:4f:47:a2:c7:10:b3:1a:2e:1a:41:74:f0:22:
        2f:60:d4:e5:20:86:35:79:38:9c:66:4c:40:ab:1b:ee:86:55:
        8a:55:a5:63:86:4f:73:0c:7e:c1:d9:3d:be:b1:9a:39:6d:5c:
        29:3a:3a:76:a5:32:99:e8:cc:32:78:54:86:a4:bd:38:2d:20:
        8c:6f:d7:d9:79:e4:91:10:96:1f:7d:2a:44:d6:75:71:7d:c8:
        40:13:e7:e4:b1:83:6f:d2:a4:ae:c9:e4:df:b5:56:df:b9:aa:
        33:22:62:13:ca:e2:4d:eb
-----BEGIN CERTIFICATE-----
MIIFizCCA3OgAwIBAgIBAzANBgkqhkiG9w0BAQUFADCB2DELMAkGA1UEBhMCQkEx
GTAXBgNVBAgTEFJlcHVibGlrYSBTcnBza2ExEzARBgNVBAcTCkJhbmphIEx1a2Ex
ITAfBgNVBAoTGEVsZWt0cm90ZWhuaWNraSBmYWt1bHRldDEtMCsGA1UECxMkS2F0
ZWRyYSB6YSByYWN1bmFyc3R2byBpIGluZm9ybWF0aWt1MSowKAYDVQQDEyFDQSBz
ZXJ0aWZpa2F0IC0gaXNwaXQgMjcuMDEuMjAxNi4xGzAZBgkqhkiG9w0BCQEWDGNh
QGV0ZmJsLm5ldDAeFw0yNDA1MjcyMTI3NTVaFw0zNDA1MjUyMTI3NTVaMIGsMQsw
CQYDVQQGEwJCQTEZMBcGA1UECBMQUmVwdWJsaWthIFNycHNrYTEhMB8GA1UEChMY
RWxla3Ryb3RlaG5pY2tpIGZha3VsdGV0MS0wKwYDVQQLEyRLYXRlZHJhIHphIHJh
Y3VuYXJzdHZvIGkgaW5mb3JtYXRpa3UxDzANBgNVBAMTBm1hcmtvMzEfMB0GCSqG
SIb3DQEJARYQbWFya28zQGdtYWlsLmNvbTCCASIwDQYJKoZIhvcNAQEBBQADggEP
ADCCAQoCggEBALqgZYHdtSyk1OBQFD37a9S/b5Sx2KuD1mgcL8of6JF8xy3c99L0
TJmDHNlRm7f9VHtK47Eh1p0s2rQvarKIPMHhtc6BhJ7x2uXxeHudrJjucs6xyPmI
jlZ5v/51t/dejJ/7QLSuKvUPQMC2hJmjt8UT9MdQXM7L544EvyO6FjGpxo5/55Et
ZA8ihQwgBsAvinU5MlPO5O32dtkhGAESToG5ysIvA9yPiyJfaX+yzEzpYOKYBT2Q
lpFDxS5n4Mx2BGg7DcGHbbYVVy2N91K45FkGXwAtU0szO9oo7xwnDNlWBwSn34AG
ITDOF0EeCy1SdCXRO/TaoiMz9v4AW0qmKy0CAwEAAaOBiTCBhjAJBgNVHRMEAjAA
MAsGA1UdDwQEAwIF4DAsBglghkgBhvhCAQ0EHxYdT3BlblNTTCBHZW5lcmF0ZWQg
Q2VydGlmaWNhdGUwHQYDVR0OBBYEFAzuBhAwHpSfz5qmkSi2lMqugNOEMB8GA1Ud
IwQYMBaAFCyI4BwNMj71oARMjYFK2Suh6BBjMA0GCSqGSIb3DQEBBQUAA4ICAQBH
lagNtwQcXfJng15fQQVv79p87wTU0h6z3ToZG4PxUxDRomlDTx+thnB6v/sOKr3G
MexTgdPVKICzdyzMJLQDgDFbuwNSprOVChXA4CxPV8rfnsEyrY3kwwAT8XU/TLSB
Iu0QeGpga1ogX7YxEC9l5nI8R74d++aBkgOJyKgCA4aq+YIs2eAtr3X+V1tlvP/1
fA6M7gYPcAjkpKgVuDOXQKUYNlLnSOmg9N1auBRBPr9i3QkzbPrtAWfiK+sYRtH2
PLfv9W0zsyQW++31NScdkGdz5dSk7mv54iSSWdIYeBUwLVKi++irMljk7Ffwruv3
xu8pzTqguwbXtq8i0jH1Qt+qGd5hjznp/3iJEoRR8W9pTW57Eq0uTU0VKObABQgc
IMCeVDE/RayVuJFh21vYm2zV80RfAe5iwJB0WWQ5bk/h0fvulZPD7lctogxu1vu4
NvmmSK3Y6XK9V8Zsv5l0pLUZ3TpeiZeqlE4CeDSCy8o0X/hI7byS19bEF1nNf661
ehuSnp7ycdRCdMH7z4N1w09HoscQsxouGkF08CIvYNTlIIY1eTicZkxAqxvuhlWK
VaVjhk9zDH7B2T2+sZo5bVwpOjp2pTKZ6MwyeFSGpL04LSCMb9fZeeSREJYffSpE
1nVxfchAE+fksYNv0qSuyeTftVbfuaozImITyuJN6w==
-----END CERTIFICATE-----
