Certificate:
    Data:
        Version: 3 (0x2)
        Serial Number: 1 (0x1)
        Signature Algorithm: sha1WithRSAEncryption
        Issuer: C=BA, ST=Republika Srpska, L=Banja Luka, O=Elektrotehnicki fakultet, OU=Katedra za racunarstvo i informatiku, CN=CA sertifikat - ispit 27.01.2016./emailAddress=ca@etfbl.net
        Validity
            Not Before: May 27 21:27:51 2024 GMT
            Not After : May 25 21:27:51 2034 GMT
        Subject: C=BA, ST=Republika Srpska, O=Elektrotehnicki fakultet, OU=Katedra za racunarstvo i informatiku, CN=Marko1/emailAddress=marko1@gmail.com
        Subject Public Key Info:
            Public Key Algorithm: rsaEncryption
                Public-Key: (2048 bit)
                Modulus:
                    00:b6:29:a9:51:fa:69:a6:6d:5b:34:a3:79:79:99:
                    97:f6:39:f1:16:ac:4a:e6:a2:bb:0c:4d:d6:d0:72:
                    da:d9:a9:ad:ad:f3:34:ff:8d:10:5c:1a:f4:cd:8b:
                    cf:98:5a:80:be:14:3b:fc:3f:00:2e:9a:69:f4:63:
                    fd:20:45:41:e1:96:68:aa:f1:c4:62:6a:30:34:e7:
                    ff:c0:eb:6a:9f:58:01:91:68:e3:71:21:83:60:f4:
                    e7:a1:41:e5:85:55:09:18:b7:fe:42:2e:c4:62:d1:
                    c9:b9:81:5e:ea:b3:90:d8:e6:41:84:e5:65:64:c7:
                    d3:ec:2f:e5:10:45:dd:08:14:57:4e:c0:ed:05:09:
                    37:b7:0e:e8:7b:09:b1:fe:2d:59:fc:6c:76:ee:ff:
                    39:f1:9d:be:f1:5e:08:74:75:d4:6b:66:f5:a2:cd:
                    43:98:f8:dd:00:c2:c5:f3:80:2e:7f:c6:fb:60:ee:
                    7c:79:81:0b:aa:a5:97:7c:bc:67:c0:36:f8:6a:fb:
                    77:0a:c3:12:2b:1a:de:c9:8d:7a:8f:83:d6:04:7c:
                    76:03:0e:e2:59:45:3e:c8:bc:a2:9c:b0:b4:2d:06:
                    4e:47:13:65:73:fb:ac:a8:8c:66:c6:c5:bb:38:05:
                    f3:3d:99:f8:1e:28:0c:a4:84:7c:f6:ac:5a:d9:d2:
                    aa:59
                Exponent: 65537 (0x10001)
        X509v3 extensions:
            X509v3 Basic Constraints: 
                CA:FALSE
            X509v3 Key Usage: 
                Digital Signature, Non Repudiation, Key Encipherment
            Netscape Comment: 
                OpenSSL Generated Certificate
            X509v3 Subject Key Identifier: 
                D5:42:00:90:C4:79:CD:77:FB:A1:C0:9A:E4:57:06:20:E7:EF:4E:B8
            X509v3 Authority Key Identifier: 
                2C:88:E0:1C:0D:32:3E:F5:A0:04:4C:8D:81:4A:D9:2B:A1:E8:10:63
    Signature Algorithm: sha1WithRSAEncryption
    Signature Value:
        87:56:76:e2:7b:90:6b:52:e8:79:ac:9c:c6:08:96:5c:cb:02:
        1e:59:b3:3b:d2:91:f3:f3:08:f9:4a:07:6a:b0:69:78:a2:1a:
        4d:af:29:c9:77:ca:f0:97:c1:d8:78:f8:73:0d:23:dc:8d:ec:
        a2:ee:33:54:0a:88:9e:dc:8e:9a:80:ad:5d:de:5f:4e:24:cb:
        97:7a:03:46:58:c4:7b:d8:7a:83:00:21:79:17:e2:b0:7b:eb:
        c8:d6:4e:1a:1b:b1:a5:8a:fc:71:ed:4d:c3:fd:79:77:79:ff:
        be:50:61:9c:fc:ea:bf:40:0f:ed:58:68:9e:b4:7d:d4:d5:61:
        b9:2b:f5:04:8c:43:18:66:16:b4:46:6c:eb:37:7d:77:91:cd:
        48:91:05:44:07:9d:e1:36:a2:65:9e:94:43:28:f2:a6:50:a5:
        3b:52:6f:29:3b:39:87:d8:07:6c:1e:18:79:f1:f4:31:d9:55:
        04:2a:aa:44:0c:13:8b:fa:b0:4f:df:a8:02:09:15:56:c6:15:
        15:92:40:21:2d:4f:b0:c1:48:f7:04:98:4c:dd:72:53:1e:e5:
        14:a1:e5:32:ec:ef:d2:84:2f:b1:80:4c:bd:b5:4e:af:2e:0f:
        f7:8f:c9:b1:d0:f2:39:40:39:45:2f:b4:85:cc:52:0e:09:c9:
        ee:36:c8:50:83:ff:e7:24:c2:c4:0c:e1:77:3d:8d:77:8d:a9:
        ec:14:a4:be:69:4e:c0:b6:de:d3:a0:63:e4:6f:71:78:1c:6c:
        36:90:c4:15:e1:27:62:a2:16:51:c2:f1:4b:f5:88:50:a2:e1:
        f9:91:80:f4:4f:b8:fc:88:6a:01:4d:fe:71:70:8f:87:b5:2e:
        57:40:d2:82:89:f4:2c:4a:da:3b:9c:82:13:47:c1:7c:15:31:
        5e:a6:b8:a5:50:7b:af:d2:bf:a8:ed:b4:65:99:93:87:46:62:
        6d:06:07:8c:1f:1a:56:19:f7:92:cf:d1:c7:5b:28:60:a6:a9:
        83:5c:e9:05:67:a2:eb:cf:b1:39:49:ea:54:9a:62:33:65:98:
        53:e4:fc:fe:29:39:c6:d9:e5:4c:e2:67:51:c7:d3:02:76:10:
        27:29:26:5c:fb:86:0c:16:fa:bf:05:b6:93:ae:95:fa:c4:85:
        20:46:50:7c:31:ac:42:87:a1:47:86:d2:df:4c:8f:f1:65:c2:
        d4:be:3b:51:10:1f:d0:c9:8f:17:69:2a:b4:39:9a:e3:7c:af:
        bb:c5:b6:25:ba:ef:5e:e1:49:b9:54:c7:78:14:73:35:b1:b4:
        ba:d2:78:47:62:18:9c:30:64:a9:e5:64:9c:3f:39:09:fc:23:
        58:84:7d:d4:0b:0f:85:8a
-----BEGIN CERTIFICATE-----
MIIFizCCA3OgAwIBAgIBATANBgkqhkiG9w0BAQUFADCB2DELMAkGA1UEBhMCQkEx
GTAXBgNVBAgTEFJlcHVibGlrYSBTcnBza2ExEzARBgNVBAcTCkJhbmphIEx1a2Ex
ITAfBgNVBAoTGEVsZWt0cm90ZWhuaWNraSBmYWt1bHRldDEtMCsGA1UECxMkS2F0
ZWRyYSB6YSByYWN1bmFyc3R2byBpIGluZm9ybWF0aWt1MSowKAYDVQQDEyFDQSBz
ZXJ0aWZpa2F0IC0gaXNwaXQgMjcuMDEuMjAxNi4xGzAZBgkqhkiG9w0BCQEWDGNh
QGV0ZmJsLm5ldDAeFw0yNDA1MjcyMTI3NTFaFw0zNDA1MjUyMTI3NTFaMIGsMQsw
CQYDVQQGEwJCQTEZMBcGA1UECBMQUmVwdWJsaWthIFNycHNrYTEhMB8GA1UEChMY
RWxla3Ryb3RlaG5pY2tpIGZha3VsdGV0MS0wKwYDVQQLEyRLYXRlZHJhIHphIHJh
Y3VuYXJzdHZvIGkgaW5mb3JtYXRpa3UxDzANBgNVBAMTBk1hcmtvMTEfMB0GCSqG
SIb3DQEJARYQbWFya28xQGdtYWlsLmNvbTCCASIwDQYJKoZIhvcNAQEBBQADggEP
ADCCAQoCggEBALYpqVH6aaZtWzSjeXmZl/Y58RasSuaiuwxN1tBy2tmpra3zNP+N
EFwa9M2Lz5hagL4UO/w/AC6aafRj/SBFQeGWaKrxxGJqMDTn/8Drap9YAZFo43Eh
g2D056FB5YVVCRi3/kIuxGLRybmBXuqzkNjmQYTlZWTH0+wv5RBF3QgUV07A7QUJ
N7cO6HsJsf4tWfxsdu7/OfGdvvFeCHR11Gtm9aLNQ5j43QDCxfOALn/G+2DufHmB
C6qll3y8Z8A2+Gr7dwrDEisa3smNeo+D1gR8dgMO4llFPsi8opywtC0GTkcTZXP7
rKiMZsbFuzgF8z2Z+B4oDKSEfPasWtnSqlkCAwEAAaOBiTCBhjAJBgNVHRMEAjAA
MAsGA1UdDwQEAwIF4DAsBglghkgBhvhCAQ0EHxYdT3BlblNTTCBHZW5lcmF0ZWQg
Q2VydGlmaWNhdGUwHQYDVR0OBBYEFNVCAJDEec13+6HAmuRXBiDn7064MB8GA1Ud
IwQYMBaAFCyI4BwNMj71oARMjYFK2Suh6BBjMA0GCSqGSIb3DQEBBQUAA4ICAQCH
Vnbie5BrUuh5rJzGCJZcywIeWbM70pHz8wj5SgdqsGl4ohpNrynJd8rwl8HYePhz
DSPcjeyi7jNUCoie3I6agK1d3l9OJMuXegNGWMR72HqDACF5F+Kwe+vI1k4aG7Gl
ivxx7U3D/Xl3ef++UGGc/Oq/QA/tWGietH3U1WG5K/UEjEMYZha0RmzrN313kc1I
kQVEB53hNqJlnpRDKPKmUKU7Um8pOzmH2AdsHhh58fQx2VUEKqpEDBOL+rBP36gC
CRVWxhUVkkAhLU+wwUj3BJhM3XJTHuUUoeUy7O/ShC+xgEy9tU6vLg/3j8mx0PI5
QDlFL7SFzFIOCcnuNshQg//nJMLEDOF3PY13jansFKS+aU7Att7ToGPkb3F4HGw2
kMQV4SdiohZRwvFL9YhQouH5kYD0T7j8iGoBTf5xcI+HtS5XQNKCifQsSto7nIIT
R8F8FTFeprilUHuv0r+o7bRlmZOHRmJtBgeMHxpWGfeSz9HHWyhgpqmDXOkFZ6Lr
z7E5SepUmmIzZZhT5Pz+KTnG2eVM4mdRx9MCdhAnKSZc+4YMFvq/BbaTrpX6xIUg
RlB8MaxCh6FHhtLfTI/xZcLUvjtREB/QyY8XaSq0OZrjfK+7xbYluu9e4Um5VMd4
FHM1sbS60nhHYhicMGSp5WScPzkJ/CNYhH3UCw+Fig==
-----END CERTIFICATE-----
