Certificate:
    Data:
        Version: 3 (0x2)
        Serial Number: 1 (0x1)
        Signature Algorithm: sha1WithRSAEncryption
        Issuer: C=BA, ST=RS, L=Banja Luka, O=Elektrotehnicki fakultet, OU=ETF, CN=rootCA/emailAddress=camail
        Validity
            Not Before: Aug 25 17:29:42 2024 GMT
            Not After : Aug 30 17:29:42 2024 GMT
        Subject: C=BA, ST=RS, O=Elektrotehnicki fakultet, OU=ETF, CN=Klijent1/emailAddress=k1
        Subject Public Key Info:
            Public Key Algorithm: rsaEncryption
                Public-Key: (2048 bit)
                Modulus:
                    00:8f:71:a9:2c:3a:d6:a5:1b:a1:7a:2f:ba:3e:8a:
                    ba:06:a2:59:8a:6b:58:0e:2b:23:f2:f9:14:54:d1:
                    f2:4d:ec:e5:4b:b7:10:15:11:ef:da:2d:ab:0f:51:
                    38:ac:66:6d:22:3d:eb:5e:15:fe:57:67:56:7d:e5:
                    9b:35:ac:63:3d:9b:39:7f:2e:2d:a4:b5:57:5f:20:
                    80:ff:3a:46:3b:df:5c:3f:f2:ff:1d:dc:36:a2:4a:
                    c9:86:2d:26:b8:14:e0:d1:56:ce:0d:79:7d:9a:64:
                    e8:ae:08:15:55:52:bd:00:ac:a0:b7:11:fa:f4:34:
                    c7:5d:d6:2a:78:2c:a0:6b:1e:d9:ee:46:cc:11:4f:
                    35:53:62:40:59:24:f3:af:f5:74:48:4c:52:ba:51:
                    49:53:41:20:8b:69:c7:3b:37:28:de:77:2d:64:de:
                    12:7c:7a:3e:59:c2:d2:01:3e:d9:74:d7:c9:e2:9f:
                    82:85:a3:14:62:56:7e:c3:80:ed:42:da:bc:50:b8:
                    bf:52:8f:59:bf:e7:94:f3:a8:ac:7a:3f:4e:ea:a4:
                    c7:bd:c3:7c:bc:7f:36:90:19:e0:fe:f1:5d:2a:49:
                    85:25:30:29:4a:53:ee:d9:a6:9e:8c:4a:c6:19:0f:
                    c5:80:58:df:ab:ec:cb:83:fd:b6:15:f8:b7:10:ff:
                    a0:6d
                Exponent: 65537 (0x10001)
        X509v3 extensions:
            X509v3 Basic Constraints: 
                CA:FALSE
            X509v3 Key Usage: 
                Digital Signature
            X509v3 Extended Key Usage: 
                TLS Web Client Authentication
            Netscape Comment: 
                OpenSSL Generated Certificate
            X509v3 Subject Key Identifier: 
                93:50:39:3F:E9:26:B2:2F:54:C1:B9:D1:E4:2F:55:FF:24:66:50:D1
            X509v3 Authority Key Identifier: 
                C9:1F:17:27:20:ED:62:93:48:1A:0D:1B:99:28:79:E2:9A:C7:2F:1B
            X509v3 CRL Distribution Points: 
                Full Name:
                  URI:http://192.168.21.89/rootcrl.pem
    Signature Algorithm: sha1WithRSAEncryption
    Signature Value:
        96:00:27:f3:ed:9e:91:9c:8a:ac:d0:4c:28:03:96:e4:51:61:
        b4:2e:25:c4:6f:fa:0b:82:f1:0a:2d:7b:0b:6c:de:8a:3c:3d:
        19:4e:f4:2f:83:2e:e7:cb:02:24:35:80:1a:61:a5:30:6a:de:
        44:cd:e2:5c:1c:23:e6:b7:36:30:bb:6a:37:7e:8d:0e:7d:d8:
        2a:13:ef:d7:bc:11:0a:12:e9:85:50:c6:70:0e:54:62:12:f1:
        27:67:16:be:b1:e2:8d:70:41:60:19:bd:35:d4:a5:62:04:12:
        79:9e:24:0d:e0:25:19:f3:2c:e4:51:f1:7f:49:86:59:1f:64:
        4b:18:b6:81:53:92:2e:e0:81:47:0a:d8:1b:bc:c3:87:46:bf:
        8c:6f:37:4e:ec:6d:54:e6:b3:2f:80:be:a4:f6:0a:43:52:61:
        90:61:c7:bc:81:63:99:07:a9:58:66:cd:f7:e0:49:47:2d:ec:
        e5:30:39:42:4f:43:1c:bb:eb:b3:7c:f0:c7:3d:b4:22:58:32:
        45:5d:c1:20:81:e4:2b:4a:92:97:8f:66:4c:56:cd:f0:84:f7:
        07:9a:a2:15:0b:8f:59:17:61:57:4a:3c:16:fd:01:cc:ae:b7:
        8f:7b:90:3c:23:1e:ba:4f:88:da:ed:26:a4:16:90:ef:c3:cd:
        1f:ce:58:ea
-----BEGIN CERTIFICATE-----
MIIERzCCAy+gAwIBAgIBATANBgkqhkiG9w0BAQUFADCBiDELMAkGA1UEBhMCQkEx
CzAJBgNVBAgTAlJTMRMwEQYDVQQHEwpCYW5qYSBMdWthMSEwHwYDVQQKExhFbGVr
dHJvdGVobmlja2kgZmFrdWx0ZXQxDDAKBgNVBAsTA0VURjEPMA0GA1UEAxMGcm9v
dENBMRUwEwYJKoZIhvcNAQkBFgZjYW1haWwwHhcNMjQwODI1MTcyOTQyWhcNMjQw
ODMwMTcyOTQyWjBxMQswCQYDVQQGEwJCQTELMAkGA1UECBMCUlMxITAfBgNVBAoT
GEVsZWt0cm90ZWhuaWNraSBmYWt1bHRldDEMMAoGA1UECxMDRVRGMREwDwYDVQQD
EwhLbGlqZW50MTERMA8GCSqGSIb3DQEJARYCazEwggEiMA0GCSqGSIb3DQEBAQUA
A4IBDwAwggEKAoIBAQCPcaksOtalG6F6L7o+iroGolmKa1gOKyPy+RRU0fJN7OVL
txAVEe/aLasPUTisZm0iPeteFf5XZ1Z95Zs1rGM9mzl/Li2ktVdfIID/OkY731w/
8v8d3DaiSsmGLSa4FODRVs4NeX2aZOiuCBVVUr0ArKC3Efr0NMdd1ip4LKBrHtnu
RswRTzVTYkBZJPOv9XRITFK6UUlTQSCLacc7Nyjedy1k3hJ8ej5ZwtIBPtl018ni
n4KFoxRiVn7DgO1C2rxQuL9Sj1m/55TzqKx6P07qpMe9w3y8fzaQGeD+8V0qSYUl
MClKU+7Zpp6MSsYZD8WAWN+r7MuD/bYV+LcQ/6BtAgMBAAGjgdEwgc4wCQYDVR0T
BAIwADALBgNVHQ8EBAMCB4AwEwYDVR0lBAwwCgYIKwYBBQUHAwIwLAYJYIZIAYb4
QgENBB8WHU9wZW5TU0wgR2VuZXJhdGVkIENlcnRpZmljYXRlMB0GA1UdDgQWBBST
UDk/6SayL1TBudHkL1X/JGZQ0TAfBgNVHSMEGDAWgBTJHxcnIO1ik0gaDRuZKHni
mscvGzAxBgNVHR8EKjAoMCagJKAihiBodHRwOi8vMTkyLjE2OC4yMS44OS9yb290
Y3JsLnBlbTANBgkqhkiG9w0BAQUFAAOCAQEAlgAn8+2ekZyKrNBMKAOW5FFhtC4l
xG/6C4LxCi17C2zeijw9GU70L4Mu58sCJDWAGmGlMGreRM3iXBwj5rc2MLtqN36N
Dn3YKhPv17wRChLphVDGcA5UYhLxJ2cWvrHijXBBYBm9NdSlYgQSeZ4kDeAlGfMs
5FHxf0mGWR9kSxi2gVOSLuCBRwrYG7zDh0a/jG83TuxtVOazL4C+pPYKQ1JhkGHH
vIFjmQepWGbN9+BJRy3s5TA5Qk9DHLvrs3zwxz20IlgyRV3BIIHkK0qSl49mTFbN
8IT3B5qiFQuPWRdhV0o8Fv0BzK63j3uQPCMeuk+I2u0mpBaQ78PNH85Y6g==
-----END CERTIFICATE-----
