Certificate:
    Data:
        Version: 3 (0x2)
        Serial Number: 1 (0x1)
        Signature Algorithm: sha1WithRSAEncryption
        Issuer: C=BA, ST=RS, O=Elektrotehnicki fakultet, OU=CA, CN=CA cert/emailAddress=ca@mail.com, SN=CA, GN=ca/pseudonym=CA
        Validity
            Not Before: Aug 26 20:48:57 2024 GMT
            Not After : Aug 24 20:48:57 2034 GMT
        Subject: C=AU, ST=RS, O=Elektrotehnicki fakultet, OU=CA_ETF, CN=s1/emailAddress=s1mail
        Subject Public Key Info:
            Public Key Algorithm: rsaEncryption
                Public-Key: (2048 bit)
                Modulus:
                    00:a8:1a:4e:00:c0:f9:c6:66:b0:b4:6d:4c:67:73:
                    dd:59:8c:03:e9:f7:f2:a8:1a:c8:a2:2a:fd:19:0e:
                    e4:0a:c0:20:ec:5b:43:3d:9e:fa:57:97:f0:60:b3:
                    79:17:1d:4d:b3:d4:1d:1a:6e:0c:a8:02:88:96:6f:
                    00:76:d9:fc:1e:06:ac:4a:27:c4:a9:5a:1b:c3:1e:
                    31:ed:2e:ee:e4:34:e9:ff:19:a7:a9:f6:f4:e1:73:
                    31:db:aa:85:fd:97:12:44:8e:6f:91:d1:83:1a:bd:
                    ce:98:71:20:4f:e4:7e:b0:5e:96:f6:d0:c5:b6:6c:
                    2b:a3:48:31:a5:33:53:58:d7:1d:9d:63:e2:3c:f5:
                    31:df:fb:1c:f7:7a:f8:d8:05:b9:12:d8:03:57:9c:
                    24:34:af:62:1a:62:7a:8c:a0:a9:5d:99:68:64:db:
                    b9:d0:90:2d:b0:06:d6:c2:fd:44:eb:f3:7e:eb:99:
                    c4:35:f7:bc:30:e5:0d:09:65:b6:20:7c:22:8f:5b:
                    6b:74:68:a5:ab:36:75:17:b2:07:fb:58:7b:91:0d:
                    e4:5c:fa:4a:83:1e:07:91:4d:f6:a1:90:26:53:d4:
                    4a:ae:38:ff:66:45:35:ed:ad:80:35:c1:b6:a3:29:
                    8b:53:0f:f0:43:6c:46:26:50:93:56:ba:02:c5:03:
                    98:21
                Exponent: 65537 (0x10001)
        X509v3 extensions:
            X509v3 Basic Constraints: 
                CA:FALSE
            X509v3 Key Usage: 
                Digital Signature, Non Repudiation
            Netscape Comment: 
                OpenSSL Generated Certificate
            X509v3 Subject Key Identifier: 
                01:12:78:79:9D:C7:62:A7:B2:3B:21:B9:F8:74:3A:7F:1C:54:21:26
            X509v3 Authority Key Identifier: 
                16:6C:FF:23:09:3D:E4:BB:A0:A9:EE:83:F2:CB:FC:BF:6F:94:8A:55
            X509v3 CRL Distribution Points: 
                Full Name:
                  URI:http://192.168.21.89/rootcrl.pem
    Signature Algorithm: sha1WithRSAEncryption
    Signature Value:
        82:5a:f1:d7:59:b1:c6:a7:c3:58:ee:db:24:97:83:3b:3a:c3:
        21:c9:8d:61:60:df:e6:cc:8e:86:f9:f7:e3:b5:18:b4:67:53:
        7d:20:00:f7:98:a8:5d:15:9b:2b:91:e7:ad:c9:b2:17:fc:81:
        64:7b:d3:7c:de:c2:c6:43:ce:e6:bf:25:c5:a7:c3:68:e9:ca:
        f1:62:66:e2:e7:ca:fc:a9:27:22:b7:88:e2:1f:63:6d:b7:53:
        c2:cd:ba:c4:2f:5f:94:a4:bd:9c:14:b4:05:5a:ec:91:68:42:
        4a:17:f6:23:c2:85:5f:a3:e7:8d:aa:67:63:6a:9f:cc:a6:39:
        45:29:3a:a3:f8:49:74:44:94:4a:52:0b:3f:eb:f7:ad:bd:32:
        94:c7:a2:c2:2c:54:d3:da:64:c9:cd:ae:08:a6:a0:50:c4:f2:
        c5:c3:7f:2e:25:8c:0d:75:aa:cc:56:64:b6:b0:36:9b:07:23:
        c7:ae:58:ae:f8:36:65:29:aa:8e:85:d4:e4:b4:63:38:e9:e6:
        e1:d1:6e:2b:13:36:2c:08:f0:45:b7:bc:33:65:5f:15:03:8d:
        77:f1:5a:37:0c:f5:df:59:8d:44:44:1c:57:01:5c:fb:0a:14:
        27:3b:fb:40:51:d1:ce:8f:1f:46:ba:5d:60:e3:3e:8a:43:8c:
        c5:90:57:b9
-----BEGIN CERTIFICATE-----
MIIESjCCAzKgAwIBAgIBATANBgkqhkiG9w0BAQUFADCBnzELMAkGA1UEBhMCQkEx
CzAJBgNVBAgTAlJTMSEwHwYDVQQKExhFbGVrdHJvdGVobmlja2kgZmFrdWx0ZXQx
CzAJBgNVBAsTAkNBMRAwDgYDVQQDEwdDQSBjZXJ0MRowGAYJKoZIhvcNAQkBFgtj
YUBtYWlsLmNvbTELMAkGA1UEBBMCQ0ExCzAJBgNVBCoTAmNhMQswCQYDVQRBEwJD
QTAeFw0yNDA4MjYyMDQ4NTdaFw0zNDA4MjQyMDQ4NTdaMHIxCzAJBgNVBAYTAkFV
MQswCQYDVQQIEwJSUzEhMB8GA1UEChMYRWxla3Ryb3RlaG5pY2tpIGZha3VsdGV0
MQ8wDQYDVQQLFAZDQV9FVEYxCzAJBgNVBAMTAnMxMRUwEwYJKoZIhvcNAQkBFgZz
MW1haWwwggEiMA0GCSqGSIb3DQEBAQUAA4IBDwAwggEKAoIBAQCoGk4AwPnGZrC0
bUxnc91ZjAPp9/KoGsiiKv0ZDuQKwCDsW0M9nvpXl/Bgs3kXHU2z1B0abgyoAoiW
bwB22fweBqxKJ8SpWhvDHjHtLu7kNOn/Gaep9vThczHbqoX9lxJEjm+R0YMavc6Y
cSBP5H6wXpb20MW2bCujSDGlM1NY1x2dY+I89THf+xz3evjYBbkS2ANXnCQ0r2Ia
YnqMoKldmWhk27nQkC2wBtbC/UTr837rmcQ197ww5Q0JZbYgfCKPW2t0aKWrNnUX
sgf7WHuRDeRc+kqDHgeRTfahkCZT1EquOP9mRTXtrYA1wbajKYtTD/BDbEYmUJNW
ugLFA5ghAgMBAAGjgbwwgbkwCQYDVR0TBAIwADALBgNVHQ8EBAMCBsAwLAYJYIZI
AYb4QgENBB8WHU9wZW5TU0wgR2VuZXJhdGVkIENlcnRpZmljYXRlMB0GA1UdDgQW
BBQBEnh5ncdip7I7Ibn4dDp/HFQhJjAfBgNVHSMEGDAWgBQWbP8jCT3ku6Cp7oPy
y/y/b5SKVTAxBgNVHR8EKjAoMCagJKAihiBodHRwOi8vMTkyLjE2OC4yMS44OS9y
b290Y3JsLnBlbTANBgkqhkiG9w0BAQUFAAOCAQEAglrx11mxxqfDWO7bJJeDOzrD
IcmNYWDf5syOhvn347UYtGdTfSAA95ioXRWbK5HnrcmyF/yBZHvTfN7CxkPO5r8l
xafDaOnK8WJm4ufK/KknIreI4h9jbbdTws26xC9flKS9nBS0BVrskWhCShf2I8KF
X6PnjapnY2qfzKY5RSk6o/hJdESUSlILP+v3rb0ylMeiwixU09pkyc2uCKagUMTy
xcN/LiWMDXWqzFZktrA2mwcjx65Yrvg2ZSmqjoXU5LRjOOnm4dFuKxM2LAjwRbe8
M2VfFQONd/FaNwz131mNREQcVwFc+woUJzv7QFHRzo8fRrpdYOM+ikOMxZBXuQ==
-----END CERTIFICATE-----
