Certificate:
    Data:
        Version: 3 (0x2)
        Serial Number: 177 (0xb1)
        Signature Algorithm: sha1WithRSAEncryption
        Issuer: C=BA, ST=RS, O=Elektrotehnicki fakultet, OU=CA, CN=CA cert/emailAddress=ca@mail.com, SN=CA, GN=ca/pseudonym=CA
        Validity
            Not Before: Aug 26 20:54:04 2024 GMT
            Not After : Dec 24 20:54:04 2024 GMT
        Subject: C=BA, ST=RS, O=Elektrotehnicki fakultet, OU=CA_ETF, CN=s2/emailAddress=s2mail
        Subject Public Key Info:
            Public Key Algorithm: rsaEncryption
                Public-Key: (2048 bit)
                Modulus:
                    00:b6:86:a4:c7:45:f1:6f:26:16:15:c6:ff:cf:28:
                    00:27:10:3a:83:7f:96:19:98:4a:ff:4c:b7:3f:79:
                    e0:33:49:bc:e0:60:a7:2d:60:51:16:c8:2b:aa:6b:
                    95:7b:3d:97:51:b6:e8:03:72:03:21:23:bd:a6:85:
                    43:4a:d6:25:fe:79:c8:f3:43:2a:0e:f9:5f:5f:b6:
                    d3:e7:27:1e:e2:47:6e:36:4e:0c:b2:b1:32:04:fe:
                    88:25:5f:33:a2:7d:20:0a:52:93:50:c9:35:0e:7f:
                    f1:6e:42:f4:eb:7a:ad:b4:02:be:88:63:a9:1d:2e:
                    89:3c:5e:d5:b8:35:50:8b:f0:3a:0a:3b:9d:7a:f9:
                    97:e9:fc:83:38:0c:ab:35:d7:6f:35:95:44:50:89:
                    89:ba:da:72:fb:ad:f8:77:6f:6a:99:e6:b0:bc:67:
                    17:15:74:f0:cb:09:75:5c:4a:3c:26:f6:c4:61:ba:
                    0b:96:31:f0:a7:31:3e:a2:76:74:a6:15:da:98:d2:
                    74:46:75:41:ed:69:2a:84:ae:6e:19:20:82:0b:18:
                    3f:6d:40:90:0d:9a:af:2a:0c:18:d9:0f:09:9f:2a:
                    ef:85:4d:f4:ec:3b:26:5a:a4:fb:51:4f:b5:6c:4f:
                    1f:27:24:f1:05:19:ab:b9:ad:c5:6e:00:dc:d0:1d:
                    b4:2d
                Exponent: 65537 (0x10001)
        X509v3 extensions:
            X509v3 Basic Constraints: 
                CA:TRUE
            X509v3 Key Usage: 
                Key Encipherment
            X509v3 Extended Key Usage: 
                TLS Web Client Authentication, TLS Web Server Authentication
            Netscape Comment: 
                OpenSSL Generated Certificate
            X509v3 Subject Key Identifier: 
                65:A1:6D:AF:03:FC:D4:27:E1:0E:27:57:6F:4D:19:F2:9A:96:55:97
            X509v3 Authority Key Identifier: 
                16:6C:FF:23:09:3D:E4:BB:A0:A9:EE:83:F2:CB:FC:BF:6F:94:8A:55
            X509v3 CRL Distribution Points: 
                Full Name:
                  URI:http://192.168.21.89/rootcrl.pem
    Signature Algorithm: sha1WithRSAEncryption
    Signature Value:
        42:a5:20:c9:f5:c2:22:2c:41:a5:d4:a5:e7:a8:02:11:8c:cd:
        6b:6f:2f:6e:25:cc:f0:27:a2:70:b2:33:c6:ac:6f:ae:74:08:
        a4:fc:97:a4:c1:69:65:24:29:0a:0d:29:df:20:a5:82:64:b3:
        eb:5c:e9:a5:08:2f:0b:9e:41:02:34:a3:d4:0a:64:68:93:0f:
        da:fd:03:9b:41:34:c5:c3:16:f6:d2:94:da:74:03:e1:1a:26:
        87:66:d4:52:eb:96:e0:29:b2:c5:dc:c9:16:f5:a9:fa:2f:2e:
        40:20:ab:8a:fb:f1:fa:7a:8d:7e:ca:06:41:63:67:75:c1:58:
        95:4e:a3:9f:1b:2b:80:e7:85:3f:0e:0c:e6:0d:35:10:ac:bc:
        ef:cd:3f:e8:72:2a:03:4d:c3:61:96:5f:52:a3:b4:b4:85:2a:
        56:d8:e7:17:69:49:b3:cd:d7:10:05:f8:de:08:ba:fb:35:cb:
        38:28:fb:01:9f:3b:bf:e9:07:0b:e4:9f:ad:cc:0a:2a:f6:ce:
        e7:63:5b:f7:33:ab:a3:8e:bc:49:c3:af:74:df:8d:85:22:5b:
        f4:49:5a:3c:35:97:a8:49:55:88:f9:b8:7c:7f:f8:d3:0b:f3:
        fc:70:3d:34:7a:f5:98:32:00:36:e6:51:44:72:79:54:e1:d4:
        71:a3:7a:7d
-----BEGIN CERTIFICATE-----
MIIEbTCCA1WgAwIBAgICALEwDQYJKoZIhvcNAQEFBQAwgZ8xCzAJBgNVBAYTAkJB
MQswCQYDVQQIEwJSUzEhMB8GA1UEChMYRWxla3Ryb3RlaG5pY2tpIGZha3VsdGV0
MQswCQYDVQQLEwJDQTEQMA4GA1UEAxMHQ0EgY2VydDEaMBgGCSqGSIb3DQEJARYL
Y2FAbWFpbC5jb20xCzAJBgNVBAQTAkNBMQswCQYDVQQqEwJjYTELMAkGA1UEQRMC
Q0EwHhcNMjQwODI2MjA1NDA0WhcNMjQxMjI0MjA1NDA0WjByMQswCQYDVQQGEwJC
QTELMAkGA1UECBMCUlMxITAfBgNVBAoTGEVsZWt0cm90ZWhuaWNraSBmYWt1bHRl
dDEPMA0GA1UECxQGQ0FfRVRGMQswCQYDVQQDEwJzMjEVMBMGCSqGSIb3DQEJARYG
czJtYWlsMIIBIjANBgkqhkiG9w0BAQEFAAOCAQ8AMIIBCgKCAQEAtoakx0XxbyYW
Fcb/zygAJxA6g3+WGZhK/0y3P3ngM0m84GCnLWBRFsgrqmuVez2XUbboA3IDISO9
poVDStYl/nnI80MqDvlfX7bT5yce4kduNk4MsrEyBP6IJV8zon0gClKTUMk1Dn/x
bkL063qttAK+iGOpHS6JPF7VuDVQi/A6CjudevmX6fyDOAyrNddvNZVEUImJutpy
+634d29qmeawvGcXFXTwywl1XEo8JvbEYboLljHwpzE+onZ0phXamNJ0RnVB7Wkq
hK5uGSCCCxg/bUCQDZqvKgwY2Q8JnyrvhU307DsmWqT7UU+1bE8fJyTxBRmrua3F
bgDc0B20LQIDAQABo4HeMIHbMAwGA1UdEwQFMAMBAf8wCwYDVR0PBAQDAgUgMB0G
A1UdJQQWMBQGCCsGAQUFBwMCBggrBgEFBQcDATAsBglghkgBhvhCAQ0EHxYdT3Bl
blNTTCBHZW5lcmF0ZWQgQ2VydGlmaWNhdGUwHQYDVR0OBBYEFGWhba8D/NQn4Q4n
V29NGfKallWXMB8GA1UdIwQYMBaAFBZs/yMJPeS7oKnug/LL/L9vlIpVMDEGA1Ud
HwQqMCgwJqAkoCKGIGh0dHA6Ly8xOTIuMTY4LjIxLjg5L3Jvb3RjcmwucGVtMA0G
CSqGSIb3DQEBBQUAA4IBAQBCpSDJ9cIiLEGl1KXnqAIRjM1rby9uJczwJ6JwsjPG
rG+udAik/JekwWllJCkKDSnfIKWCZLPrXOmlCC8LnkECNKPUCmRokw/a/QObQTTF
wxb20pTadAPhGiaHZtRS65bgKbLF3MkW9an6Ly5AIKuK+/H6eo1+ygZBY2d1wViV
TqOfGyuA54U/DgzmDTUQrLzvzT/ocioDTcNhll9So7S0hSpW2OcXaUmzzdcQBfje
CLr7Ncs4KPsBnzu/6QcL5J+tzAoq9s7nY1v3M6ujjrxJw690342FIlv0SVo8NZeo
SVWI+bh8f/jTC/P8cD00evWYMgA25lFEcnlU4dRxo3p9
-----END CERTIFICATE-----
